; Function Attrs: mustprogress nofree norecurse nosync nounwind willreturn memory(argmem: read) uwtable
define { i64, i64 } @_ZN5arrowmiERKNS_15BasicDecimal128ES2_(ptr noundef nonnull readonly align 8 captures(none) dereferenceable(16) %0, ptr noundef nonnull readonly align 8 captures(none) dereferenceable(16) %1) local_unnamed_addr #7 {
  %3 = getelementptr inbounds nuw i8, ptr %0, i64 8
  %4 = load i64, ptr %3, align 8, !tbaa !7
  %5 = load i64, ptr %0, align 8, !tbaa !7
  %6 = getelementptr inbounds nuw i8, ptr %1, i64 8
  %7 = load i64, ptr %6, align 8, !tbaa !7
  %8 = sub i64 %4, %7
  %9 = load i64, ptr %1, align 8, !tbaa !7
  %10 = sub i64 %5, %9
  %11 = icmp ugt i64 %9, %5
  %.neg.i = sext i1 %11 to i64
  %12 = add i64 %8, %.neg.i
  %.fca.0.insert = insertvalue { i64, i64 } poison, i64 %10, 0
  %.fca.1.insert = insertvalue { i64, i64 } %.fca.0.insert, i64 %12, 1
  ret { i64, i64 } %.fca.1.insert
}